target datalayout = "e-m:e-p270:32:32-p271:32:32-p272:64:64-i64:64-i128:128-f80:128-n8:16:32:64-S128"
target triple = "x86_64-pc-linux-gnu"

@hf_udvm_reference_bytecode = internal global i32 0, align 4
@display_udvm_bytecode = internal global i8 0, align 1

; Function Attrs: null_pointer_is_valid sspstrong uwtable
define internal i32 @dissect_udvm_reference_operand(ptr noundef %0, ptr noundef %1, i32 noundef %2, ptr noundef %3, ptr noundef %4) #0 {
  %6 = alloca ptr, align 8
  %7 = alloca ptr, align 8
  %8 = alloca i32, align 4
  %9 = alloca ptr, align 8
  %10 = alloca ptr, align 8
  %11 = alloca i32, align 4
  %12 = alloca i16, align 2
  %13 = alloca i32, align 4
  %14 = alloca i32, align 4
  store ptr %0, ptr %6, align 8
  store ptr %1, ptr %7, align 8
  store i32 %2, ptr %8, align 4
  store ptr %3, ptr %9, align 8
  store ptr %4, ptr %10, align 8
  call void @llvm.lifetime.start.p0(i64 4, ptr %11) #10
  call void @llvm.lifetime.start.p0(i64 2, ptr %12) #10
  call void @llvm.lifetime.start.p0(i64 4, ptr %13) #10
  call void @llvm.lifetime.start.p0(i64 4, ptr %14) #10
  %15 = load ptr, ptr %6, align 8
  %16 = load i32, ptr %8, align 4
  %17 = call zeroext i8 @tvb_get_uint8(ptr noundef %15, i32 noundef %16)
  %18 = zext i8 %17 to i32
  store i32 %18, ptr %11, align 4
  %19 = load i32, ptr %11, align 4
  %20 = lshr i32 %19, 7
  store i32 %20, ptr %13, align 4
  %21 = load i32, ptr %13, align 4
  %22 = icmp eq i32 %21, 1
  br i1 %22, label %23, label %81

23:                                               ; preds = %5
  %24 = load i32, ptr %11, align 4
  %25 = lshr i32 %24, 6
  store i32 %25, ptr %13, align 4
  %26 = load i32, ptr %13, align 4
  %27 = icmp eq i32 %26, 2
  br i1 %27, label %28, label %56

28:                                               ; preds = %23
  %29 = load i32, ptr %11, align 4
  %30 = and i32 %29, 192
  store i32 %30, ptr %14, align 4
  %31 = load i8, ptr @display_udvm_bytecode, align 1, !range !8, !noundef !9
  %32 = trunc i8 %31 to i1
  br i1 %32, label %33, label %40

33:                                               ; preds = %28
  %34 = load ptr, ptr %7, align 8
  %35 = load i32, ptr @hf_udvm_reference_bytecode, align 4
  %36 = load ptr, ptr %6, align 8
  %37 = load i32, ptr %8, align 4
  %38 = load i32, ptr %14, align 4
  %39 = call ptr @proto_tree_add_uint(ptr noundef %34, i32 noundef %35, ptr noundef %36, i32 noundef %37, i32 noundef 1, i32 noundef %38)
  br label %40

40:                                               ; preds = %33, %28
  %41 = load ptr, ptr %6, align 8
  %42 = load i32, ptr %8, align 4
  %43 = call zeroext i16 @tvb_get_ntohs(ptr noundef %41, i32 noundef %42)
  %44 = zext i16 %43 to i32
  %45 = and i32 %44, 16383
  %46 = trunc i32 %45 to i16
  store i16 %46, ptr %12, align 2
  %47 = load i16, ptr %12, align 2
  %48 = zext i16 %47 to i32
  %49 = mul i32 %48, 2
  %50 = trunc i32 %49 to i16
  %51 = load ptr, ptr %10, align 8
  store i16 %50, ptr %51, align 2
  %52 = load i32, ptr %8, align 4
  %53 = load ptr, ptr %9, align 8
  store i32 %52, ptr %53, align 4
  %54 = load i32, ptr %8, align 4
  %55 = add i32 %54, 2
  store i32 %55, ptr %8, align 4
  br label %80

56:                                               ; preds = %23
  %57 = load i32, ptr %11, align 4
  %58 = and i32 %57, 192
  store i32 %58, ptr %14, align 4
  %59 = load i8, ptr @display_udvm_bytecode, align 1, !range !8, !noundef !9
  %60 = trunc i8 %59 to i1
  br i1 %60, label %61, label %68

61:                                               ; preds = %56
  %62 = load ptr, ptr %7, align 8
  %63 = load i32, ptr @hf_udvm_reference_bytecode, align 4
  %64 = load ptr, ptr %6, align 8
  %65 = load i32, ptr %8, align 4
  %66 = load i32, ptr %14, align 4
  %67 = call ptr @proto_tree_add_uint(ptr noundef %62, i32 noundef %63, ptr noundef %64, i32 noundef %65, i32 noundef 1, i32 noundef %66)
  br label %68

68:                                               ; preds = %61, %56
  %69 = load i32, ptr %8, align 4
  %70 = add i32 %69, 1
  store i32 %70, ptr %8, align 4
  %71 = load ptr, ptr %6, align 8
  %72 = load i32, ptr %8, align 4
  %73 = call zeroext i16 @tvb_get_ntohs(ptr noundef %71, i32 noundef %72)
  store i16 %73, ptr %12, align 2
  %74 = load i16, ptr %12, align 2
  %75 = load ptr, ptr %10, align 8
  store i16 %74, ptr %75, align 2
  %76 = load i32, ptr %8, align 4
  %77 = load ptr, ptr %9, align 8
  store i32 %76, ptr %77, align 4
  %78 = load i32, ptr %8, align 4
  %79 = add i32 %78, 2
  store i32 %79, ptr %8, align 4
  br label %80

80:                                               ; preds = %68, %40
  br label %106

81:                                               ; preds = %5
  %82 = load i32, ptr %11, align 4
  %83 = and i32 %82, 192
  store i32 %83, ptr %14, align 4
  %84 = load i8, ptr @display_udvm_bytecode, align 1, !range !8, !noundef !9
  %85 = trunc i8 %84 to i1
  br i1 %85, label %86, label %93

86:                                               ; preds = %81
  %87 = load ptr, ptr %7, align 8
  %88 = load i32, ptr @hf_udvm_reference_bytecode, align 4
  %89 = load ptr, ptr %6, align 8
  %90 = load i32, ptr %8, align 4
  %91 = load i32, ptr %14, align 4
  %92 = call ptr @proto_tree_add_uint(ptr noundef %87, i32 noundef %88, ptr noundef %89, i32 noundef %90, i32 noundef 1, i32 noundef %91)
  br label %93

93:                                               ; preds = %86, %81
  %94 = load i32, ptr %11, align 4
  %95 = and i32 %94, 127
  %96 = trunc i32 %95 to i16
  store i16 %96, ptr %12, align 2
  %97 = load i16, ptr %12, align 2
  %98 = zext i16 %97 to i32
  %99 = mul i32 %98, 2
  %100 = trunc i32 %99 to i16
  %101 = load ptr, ptr %10, align 8
  store i16 %100, ptr %101, align 2
  %102 = load i32, ptr %8, align 4
  %103 = load ptr, ptr %9, align 8
  store i32 %102, ptr %103, align 4
  %104 = load i32, ptr %8, align 4
  %105 = add i32 %104, 1
  store i32 %105, ptr %8, align 4
  br label %106

106:                                              ; preds = %93, %80
  %107 = load i32, ptr %8, align 4
  call void @llvm.lifetime.end.p0(i64 4, ptr %14) #10
  call void @llvm.lifetime.end.p0(i64 4, ptr %13) #10
  call void @llvm.lifetime.end.p0(i64 2, ptr %12) #10
  call void @llvm.lifetime.end.p0(i64 4, ptr %11) #10
  ret i32 %107
}