; Function Attrs: null_pointer_is_valid sspstrong uwtable
define internal fastcc noundef i32 @dissect_udvm_reference_operand(ptr noundef %0, ptr noundef %1, i32 noundef %2, ptr noundef writeonly captures(none) initializes((0, 4)) %3, ptr noundef writeonly captures(none) initializes((0, 2)) %4) unnamed_addr #0 {
  %6 = tail call zeroext i8 @tvb_get_uint8(ptr noundef %0, i32 noundef %2)
  %7 = zext i8 %6 to i32
  %.not = icmp sgt i8 %6, -1
  br i1 %.not, label %27, label %8

8:                                                ; preds = %5
  %.mask = and i32 %7, 192
  %9 = icmp eq i32 %.mask, 128
  %10 = load i8, ptr @display_udvm_bytecode, align 1, !range !10, !noundef !11
  %11 = trunc nuw i8 %10 to i1
  br i1 %9, label %12, label %20

12:                                               ; preds = %8
  br i1 %11, label %13, label %16

13:                                               ; preds = %12
  %14 = load i32, ptr @hf_udvm_reference_bytecode, align 4
  %15 = tail call ptr @proto_tree_add_uint(ptr noundef %1, i32 noundef %14, ptr noundef %0, i32 noundef %2, i32 noundef 1, i32 noundef 128)
  br label %16

16:                                               ; preds = %13, %12
  %17 = tail call zeroext i16 @tvb_get_ntohs(ptr noundef %0, i32 noundef %2)
  %18 = shl i16 %17, 1
  %19 = and i16 %18, 32766
  br label %37

20:                                               ; preds = %8
  br i1 %11, label %21, label %24

21:                                               ; preds = %20
  %22 = load i32, ptr @hf_udvm_reference_bytecode, align 4
  %23 = tail call ptr @proto_tree_add_uint(ptr noundef %1, i32 noundef %22, ptr noundef %0, i32 noundef %2, i32 noundef 1, i32 noundef %.mask)
  br label %24

24:                                               ; preds = %21, %20
  %25 = add i32 %2, 1
  %26 = tail call zeroext i16 @tvb_get_ntohs(ptr noundef %0, i32 noundef %25)
  br label %37

27:                                               ; preds = %5
  %28 = load i8, ptr @display_udvm_bytecode, align 1, !range !10, !noundef !11
  %29 = trunc nuw i8 %28 to i1
  br i1 %29, label %30, label %34

30:                                               ; preds = %27
  %31 = and i32 %7, 64
  %32 = load i32, ptr @hf_udvm_reference_bytecode, align 4
  %33 = tail call ptr @proto_tree_add_uint(ptr noundef %1, i32 noundef %32, ptr noundef %0, i32 noundef %2, i32 noundef 1, i32 noundef %31)
  br label %34

34:                                               ; preds = %30, %27
  %35 = shl nuw i8 %6, 1
  %36 = zext i8 %35 to i16
  br label %37

37:                                               ; preds = %16, %24, %34
  %.sink43 = phi i16 [ %19, %16 ], [ %26, %24 ], [ %36, %34 ]
  %.sink42 = phi i32 [ %2, %16 ], [ %25, %24 ], [ %2, %34 ]
  %.sink = phi i32 [ 2, %16 ], [ 3, %24 ], [ 1, %34 ]
  store i16 %.sink43, ptr %4, align 2
  store i32 %.sink42, ptr %3, align 4
  %38 = add i32 %2, %.sink
  ret i32 %38
}